; Function Attrs: mustprogress nofree norecurse nosync nounwind willreturn memory(argmem: readwrite) uwtable
define noundef i64 @_ZN11duckdb_zstd24ZSTD_getFrameContentSizeEPKvm(ptr noundef captures(address_is_null) %0, i64 noundef %1) local_unnamed_addr #7 {
  %3 = alloca %"struct.duckdb_zstd::ZSTD_frameHeader", align 8
  call void @llvm.lifetime.start.p0(i64 48, ptr nonnull %3) #17
  %4 = call noundef i64 @_ZN11duckdb_zstd28ZSTD_getFrameHeader_advancedEPNS_16ZSTD_frameHeaderEPKvmNS_13ZSTD_format_eE(ptr noundef nonnull %3, ptr noundef %0, i64 noundef %1, i32 noundef 0)
  %.not = icmp eq i64 %4, 0
  %5 = getelementptr inbounds nuw i8, ptr %3, i64 20
  %6 = load i32, ptr %5, align 4
  %7 = icmp eq i32 %6, 1
  %8 = load i64, ptr %3, align 8
  %spec.select = select i1 %7, i64 0, i64 %8
  %.0 = select i1 %.not, i64 %spec.select, i64 -2
  call void @llvm.lifetime.end.p0(i64 48, ptr nonnull %3) #17
  ret i64 %.0
}